; Function Attrs: nounwind uwtable
define ptr @l_List_filterMapTR_go___at_Lean_Elab_Tactic_SolveByElim_parseArgs___spec__7(ptr noundef %0, ptr noundef %1) local_unnamed_addr #0 {
  br label %lean_dec.exit31.outer

lean_dec.exit31.outer:                            ; preds = %lean_dec.exit, %2
  %.026.ph = phi ptr [ %108, %lean_dec.exit ], [ %1, %2 ]
  %.0.ph = phi ptr [ %32, %lean_dec.exit ], [ %0, %2 ]
  br label %lean_dec.exit31

lean_dec.exit31:                                  ; preds = %lean_dec.exit31.backedge, %lean_dec.exit31.outer
  %.0 = phi ptr [ %.0.ph, %lean_dec.exit31.outer ], [ %32, %lean_dec.exit31.backedge ]
  %3 = ptrtoint ptr %.0 to i64
  %4 = and i64 %3, 1
  %.not.i42 = icmp eq i64 %4, 0
  br i1 %.not.i42, label %8, label %5

5:                                                ; preds = %lean_dec.exit31
  %6 = lshr i64 %3, 1
  %7 = trunc i64 %6 to i32
  br label %lean_obj_tag.exit

8:                                                ; preds = %lean_dec.exit31
  %9 = getelementptr i8, ptr %.0, i64 4
  %.val.i = load i32, ptr %9, align 4
  %10 = lshr i32 %.val.i, 24
  br label %lean_obj_tag.exit

lean_obj_tag.exit:                                ; preds = %5, %8
  %.0.i = phi i32 [ %7, %5 ], [ %10, %8 ]
  %11 = icmp eq i32 %.0.i, 0
  br i1 %11, label %12, label %14

12:                                               ; preds = %lean_obj_tag.exit
  %13 = tail call ptr @lean_array_to_list(ptr noundef %.026.ph) #4
  ret ptr %13

14:                                               ; preds = %lean_obj_tag.exit
  %15 = getelementptr inbounds nuw i8, ptr %.0, i64 8
  %16 = load ptr, ptr %15, align 8, !tbaa !4
  %17 = ptrtoint ptr %16 to i64
  %18 = and i64 %17, 1
  %.not = icmp eq i64 %18, 0
  br i1 %.not, label %19, label %lean_inc.exit35

19:                                               ; preds = %14
  %.val.i43 = load i32, ptr %16, align 4, !tbaa !8
  %20 = icmp sgt i32 %.val.i43, 0
  br i1 %20, label %21, label %23, !prof !11

21:                                               ; preds = %19
  %22 = add nuw i32 %.val.i43, 1
  store i32 %22, ptr %16, align 4, !tbaa !8
  br label %27

23:                                               ; preds = %19
  %.not.i44 = icmp eq i32 %.val.i43, 0
  br i1 %.not.i44, label %27, label %24

24:                                               ; preds = %23
  tail call void @lean_inc_ref_cold(ptr noundef nonnull %16) #4
  br label %27

lean_inc.exit35:                                  ; preds = %14
  %25 = lshr i64 %17, 1
  %26 = trunc i64 %25 to i32
  br label %lean_obj_tag.exit48

27:                                               ; preds = %24, %23, %21
  %28 = getelementptr i8, ptr %16, i64 4
  %.val.i47 = load i32, ptr %28, align 4
  %29 = lshr i32 %.val.i47, 24
  br label %lean_obj_tag.exit48

lean_obj_tag.exit48:                              ; preds = %lean_inc.exit35, %27
  %.0.i46 = phi i32 [ %26, %lean_inc.exit35 ], [ %29, %27 ]
  %30 = icmp eq i32 %.0.i46, 0
  %31 = getelementptr inbounds nuw i8, ptr %.0, i64 16
  %32 = load ptr, ptr %31, align 8, !tbaa !4
  %33 = ptrtoint ptr %32 to i64
  %34 = and i64 %33, 1
  %.not71 = icmp eq i64 %34, 0
  br i1 %30, label %35, label %49

35:                                               ; preds = %lean_obj_tag.exit48
  br i1 %.not71, label %36, label %lean_inc.exit34

36:                                               ; preds = %35
  %.val.i49 = load i32, ptr %32, align 4, !tbaa !8
  %37 = icmp sgt i32 %.val.i49, 0
  br i1 %37, label %38, label %40, !prof !11

38:                                               ; preds = %36
  %39 = add nuw i32 %.val.i49, 1
  store i32 %39, ptr %32, align 4, !tbaa !8
  br label %lean_inc.exit34

40:                                               ; preds = %36
  %.not.i50 = icmp eq i32 %.val.i49, 0
  br i1 %.not.i50, label %lean_inc.exit34, label %41

41:                                               ; preds = %40
  tail call void @lean_inc_ref_cold(ptr noundef nonnull %32) #4
  br label %lean_inc.exit34

lean_inc.exit34:                                  ; preds = %41, %40, %38, %35
  br i1 %.not.i42, label %42, label %lean_dec.exit31.backedge

lean_dec.exit31.backedge:                         ; preds = %lean_inc.exit34, %45, %47, %48, %lean_obj_tag.exit61
  br label %lean_dec.exit31

42:                                               ; preds = %lean_inc.exit34
  %43 = load i32, ptr %.0, align 4, !tbaa !8
  %44 = icmp sgt i32 %43, 1
  br i1 %44, label %45, label %47, !prof !11

45:                                               ; preds = %42
  %46 = add nsw i32 %43, -1
  store i32 %46, ptr %.0, align 4, !tbaa !8
  br label %lean_dec.exit31.backedge

47:                                               ; preds = %42
  %.not.i = icmp eq i32 %43, 0
  br i1 %.not.i, label %lean_dec.exit31.backedge, label %48

48:                                               ; preds = %47
  tail call void @lean_dec_ref_cold(ptr noundef nonnull %.0) #4
  br label %lean_dec.exit31.backedge

49:                                               ; preds = %lean_obj_tag.exit48
  br i1 %.not71, label %50, label %lean_inc.exit33

50:                                               ; preds = %49
  %.val.i52 = load i32, ptr %32, align 4, !tbaa !8
  %51 = icmp sgt i32 %.val.i52, 0
  br i1 %51, label %52, label %54, !prof !11

52:                                               ; preds = %50
  %53 = add nuw i32 %.val.i52, 1
  store i32 %53, ptr %32, align 4, !tbaa !8
  br label %lean_inc.exit33

54:                                               ; preds = %50
  %.not.i53 = icmp eq i32 %.val.i52, 0
  br i1 %.not.i53, label %lean_inc.exit33, label %55

55:                                               ; preds = %54
  tail call void @lean_inc_ref_cold(ptr noundef nonnull %32) #4
  br label %lean_inc.exit33

lean_inc.exit33:                                  ; preds = %55, %54, %52, %49
  br i1 %.not.i42, label %56, label %lean_dec.exit30

56:                                               ; preds = %lean_inc.exit33
  %57 = load i32, ptr %.0, align 4, !tbaa !8
  %58 = icmp sgt i32 %57, 1
  br i1 %58, label %59, label %61, !prof !11

59:                                               ; preds = %56
  %60 = add nsw i32 %57, -1
  store i32 %60, ptr %.0, align 4, !tbaa !8
  br label %lean_dec.exit30

61:                                               ; preds = %56
  %.not.i36 = icmp eq i32 %57, 0
  br i1 %.not.i36, label %lean_dec.exit30, label %62

62:                                               ; preds = %61
  tail call void @lean_dec_ref_cold(ptr noundef nonnull %.0) #4
  br label %lean_dec.exit30

lean_dec.exit30:                                  ; preds = %62, %61, %59, %lean_inc.exit33
  %63 = getelementptr inbounds nuw i8, ptr %16, i64 8
  %64 = load ptr, ptr %63, align 8, !tbaa !4
  %65 = ptrtoint ptr %64 to i64
  %66 = and i64 %65, 1
  %.not68 = icmp eq i64 %66, 0
  br i1 %.not68, label %67, label %lean_inc.exit32

67:                                               ; preds = %lean_dec.exit30
  %.val.i55 = load i32, ptr %64, align 4, !tbaa !8
  %68 = icmp sgt i32 %.val.i55, 0
  br i1 %68, label %69, label %71, !prof !11

69:                                               ; preds = %67
  %70 = add nuw i32 %.val.i55, 1
  store i32 %70, ptr %64, align 4, !tbaa !8
  br label %lean_inc.exit32

71:                                               ; preds = %67
  %.not.i56 = icmp eq i32 %.val.i55, 0
  br i1 %.not.i56, label %lean_inc.exit32, label %72

72:                                               ; preds = %71
  tail call void @lean_inc_ref_cold(ptr noundef nonnull %64) #4
  br label %lean_inc.exit32

lean_inc.exit32:                                  ; preds = %72, %71, %69, %lean_dec.exit30
  br i1 %.not, label %73, label %lean_dec.exit29

73:                                               ; preds = %lean_inc.exit32
  %74 = load i32, ptr %16, align 4, !tbaa !8
  %75 = icmp sgt i32 %74, 1
  br i1 %75, label %76, label %78, !prof !11

76:                                               ; preds = %73
  %77 = add nsw i32 %74, -1
  store i32 %77, ptr %16, align 4, !tbaa !8
  br label %lean_dec.exit29

78:                                               ; preds = %73
  %.not.i38 = icmp eq i32 %74, 0
  br i1 %.not.i38, label %lean_dec.exit29, label %79

79:                                               ; preds = %78
  tail call void @lean_dec_ref_cold(ptr noundef nonnull %16) #4
  br label %lean_dec.exit29

lean_dec.exit29:                                  ; preds = %79, %78, %76, %lean_inc.exit32
  %80 = tail call ptr @l_Sum_getRight_x3f___rarg(ptr noundef %64) #4
  %81 = ptrtoint ptr %80 to i64
  %82 = and i64 %81, 1
  %.not.i58 = icmp eq i64 %82, 0
  br i1 %.not.i58, label %86, label %83

83:                                               ; preds = %lean_dec.exit29
  %84 = lshr i64 %81, 1
  %85 = trunc i64 %84 to i32
  br label %lean_obj_tag.exit61

86:                                               ; preds = %lean_dec.exit29
  %87 = getelementptr i8, ptr %80, i64 4
  %.val.i60 = load i32, ptr %87, align 4
  %88 = lshr i32 %.val.i60, 24
  br label %lean_obj_tag.exit61

lean_obj_tag.exit61:                              ; preds = %83, %86
  %.0.i59 = phi i32 [ %85, %83 ], [ %88, %86 ]
  %89 = icmp eq i32 %.0.i59, 0
  br i1 %89, label %lean_dec.exit31.backedge, label %90

90:                                               ; preds = %lean_obj_tag.exit61
  %91 = getelementptr inbounds nuw i8, ptr %80, i64 8
  %92 = load ptr, ptr %91, align 8, !tbaa !4
  %93 = ptrtoint ptr %92 to i64
  %94 = and i64 %93, 1
  %.not69 = icmp eq i64 %94, 0
  br i1 %.not69, label %95, label %lean_inc.exit

95:                                               ; preds = %90
  %.val.i62 = load i32, ptr %92, align 4, !tbaa !8
  %96 = icmp sgt i32 %.val.i62, 0
  br i1 %96, label %97, label %99, !prof !11

97:                                               ; preds = %95
  %98 = add nuw i32 %.val.i62, 1
  store i32 %98, ptr %92, align 4, !tbaa !8
  br label %lean_inc.exit

99:                                               ; preds = %95
  %.not.i63 = icmp eq i32 %.val.i62, 0
  br i1 %.not.i63, label %lean_inc.exit, label %100

100:                                              ; preds = %99
  tail call void @lean_inc_ref_cold(ptr noundef nonnull %92) #4
  br label %lean_inc.exit

lean_inc.exit:                                    ; preds = %100, %99, %97, %90
  br i1 %.not.i58, label %101, label %lean_dec.exit

101:                                              ; preds = %lean_inc.exit
  %102 = load i32, ptr %80, align 4, !tbaa !8
  %103 = icmp sgt i32 %102, 1
  br i1 %103, label %104, label %106, !prof !11

104:                                              ; preds = %101
  %105 = add nsw i32 %102, -1
  store i32 %105, ptr %80, align 4, !tbaa !8
  br label %lean_dec.exit

106:                                              ; preds = %101
  %.not.i40 = icmp eq i32 %102, 0
  br i1 %.not.i40, label %lean_dec.exit, label %107

107:                                              ; preds = %106
  tail call void @lean_dec_ref_cold(ptr noundef nonnull %80) #4
  br label %lean_dec.exit

lean_dec.exit:                                    ; preds = %107, %106, %104, %lean_inc.exit
  %108 = tail call ptr @lean_array_push(ptr noundef %.026.ph, ptr noundef %92) #4
  br label %lean_dec.exit31.outer
}